; Function Attrs: mustprogress uwtable
define dso_local void @_ZN21btConeTwistConstraint9setFramesERK11btTransformS2_(ptr noundef nonnull align 8 dereferenceable(632) initializes((324, 452)) %0, ptr noundef nonnull readonly align 4 captures(none) dereferenceable(64) %1, ptr noundef nonnull readonly align 4 captures(none) dereferenceable(64) %2) unnamed_addr #0 align 2 {
  %4 = getelementptr inbounds nuw i8, ptr %0, i64 324
  tail call void @llvm.memcpy.p0.p0.i64(ptr noundef nonnull align 4 dereferenceable(64) %4, ptr noundef nonnull align 4 dereferenceable(64) %1, i64 16, i1 false), !tbaa.struct !7
  %5 = getelementptr inbounds nuw i8, ptr %1, i64 16
  %6 = getelementptr inbounds nuw i8, ptr %0, i64 340
  tail call void @llvm.memcpy.p0.p0.i64(ptr noundef nonnull align 4 dereferenceable(16) %6, ptr noundef nonnull align 4 dereferenceable(16) %5, i64 16, i1 false), !tbaa.struct !7
  %7 = getelementptr inbounds nuw i8, ptr %1, i64 32
  %8 = getelementptr inbounds nuw i8, ptr %0, i64 356
  tail call void @llvm.memcpy.p0.p0.i64(ptr noundef nonnull align 4 dereferenceable(16) %8, ptr noundef nonnull align 4 dereferenceable(16) %7, i64 16, i1 false), !tbaa.struct !7
  %9 = getelementptr inbounds nuw i8, ptr %1, i64 48
  %10 = getelementptr inbounds nuw i8, ptr %0, i64 372
  tail call void @llvm.memcpy.p0.p0.i64(ptr noundef nonnull align 4 dereferenceable(16) %10, ptr noundef nonnull align 4 dereferenceable(16) %9, i64 16, i1 false), !tbaa.struct !7
  %11 = getelementptr inbounds nuw i8, ptr %0, i64 388
  tail call void @llvm.memcpy.p0.p0.i64(ptr noundef nonnull align 4 dereferenceable(64) %11, ptr noundef nonnull align 4 dereferenceable(64) %2, i64 16, i1 false), !tbaa.struct !7
  %12 = getelementptr inbounds nuw i8, ptr %2, i64 16
  %13 = getelementptr inbounds nuw i8, ptr %0, i64 404
  tail call void @llvm.memcpy.p0.p0.i64(ptr noundef nonnull align 4 dereferenceable(16) %13, ptr noundef nonnull align 4 dereferenceable(16) %12, i64 16, i1 false), !tbaa.struct !7
  %14 = getelementptr inbounds nuw i8, ptr %2, i64 32
  %15 = getelementptr inbounds nuw i8, ptr %0, i64 420
  tail call void @llvm.memcpy.p0.p0.i64(ptr noundef nonnull align 4 dereferenceable(16) %15, ptr noundef nonnull align 4 dereferenceable(16) %14, i64 16, i1 false), !tbaa.struct !7
  %16 = getelementptr inbounds nuw i8, ptr %2, i64 48
  %17 = getelementptr inbounds nuw i8, ptr %0, i64 436
  tail call void @llvm.memcpy.p0.p0.i64(ptr noundef nonnull align 4 dereferenceable(16) %17, ptr noundef nonnull align 4 dereferenceable(16) %16, i64 16, i1 false), !tbaa.struct !7
  %18 = load ptr, ptr %0, align 8, !tbaa !4
  %19 = getelementptr inbounds nuw i8, ptr %18, i64 16
  %20 = load ptr, ptr %19, align 8
  tail call void %20(ptr noundef nonnull align 8 dereferenceable(632) %0)
  ret void
}